target datalayout = "e-m:e-p270:32:32-p271:32:32-p272:64:64-i64:64-i128:128-f80:128-n8:16:32:64-S128"
target triple = "x86_64-pc-linux-gnu"

; Function Attrs: nounwind null_pointer_is_valid sspstrong uwtable
define internal zeroext i8 @reverse_bits(i8 noundef zeroext %0) #2 {
  %2 = alloca i8, align 1
  store i8 %0, ptr %2, align 1
  %3 = load i8, ptr %2, align 1
  %4 = zext i8 %3 to i32
  %5 = ashr i32 %4, 1
  %6 = and i32 %5, 85
  %7 = load i8, ptr %2, align 1
  %8 = zext i8 %7 to i32
  %9 = shl i32 %8, 1
  %10 = and i32 %9, 170
  %11 = or i32 %6, %10
  %12 = trunc i32 %11 to i8
  store i8 %12, ptr %2, align 1
  %13 = load i8, ptr %2, align 1
  %14 = zext i8 %13 to i32
  %15 = ashr i32 %14, 2
  %16 = and i32 %15, 51
  %17 = load i8, ptr %2, align 1
  %18 = zext i8 %17 to i32
  %19 = shl i32 %18, 2
  %20 = and i32 %19, 204
  %21 = or i32 %16, %20
  %22 = trunc i32 %21 to i8
  store i8 %22, ptr %2, align 1
  %23 = load i8, ptr %2, align 1
  %24 = zext i8 %23 to i32
  %25 = ashr i32 %24, 4
  %26 = and i32 %25, 15
  %27 = load i8, ptr %2, align 1
  %28 = zext i8 %27 to i32
  %29 = shl i32 %28, 4
  %30 = and i32 %29, 240
  %31 = or i32 %26, %30
  %32 = trunc i32 %31 to i8
  store i8 %32, ptr %2, align 1
  %33 = load i8, ptr %2, align 1
  ret i8 %33
}

; Function Attrs: null_pointer_is_valid sspstrong uwtable
define internal zeroext i1 @check_crc(i8 noundef zeroext %0, ptr noundef %1, i32 noundef %2, i32 noundef %3) #0 {
  %5 = alloca i8, align 1
  %6 = alloca ptr, align 8
  %7 = alloca i32, align 4
  %8 = alloca i32, align 4
  %9 = alloca i16, align 2
  %10 = alloca i32, align 4
  %11 = alloca i16, align 2
  store i8 %0, ptr %5, align 1
  store ptr %1, ptr %6, align 8
  store i32 %2, ptr %7, align 4
  store i32 %3, ptr %8, align 4
  call void @llvm.lifetime.start.p0(i64 2, ptr %9) #12
  %12 = load i8, ptr %5, align 1
  %13 = call zeroext i8 @reverse_bits(i8 noundef zeroext %12)
  %14 = zext i8 %13 to i16
  store i16 %14, ptr %9, align 2
  %15 = load i16, ptr %9, align 2
  %16 = zext i16 %15 to i32
  %17 = shl i32 %16, 8
  %18 = trunc i32 %17 to i16
  store i16 %18, ptr %9, align 2
  br label %19

19:                                               ; preds = %57, %4
  %20 = load i32, ptr %8, align 4
  %21 = icmp sgt i32 %20, 0
  br i1 %21, label %22, label %62

22:                                               ; preds = %19
  %23 = load ptr, ptr %6, align 8
  %24 = load i32, ptr %7, align 4
  %25 = call zeroext i8 @tvb_get_uint8(ptr noundef %23, i32 noundef %24)
  %26 = zext i8 %25 to i32
  %27 = and i32 %26, 255
  %28 = load i16, ptr %9, align 2
  %29 = zext i16 %28 to i32
  %30 = xor i32 %29, %27
  %31 = trunc i32 %30 to i16
  store i16 %31, ptr %9, align 2
  call void @llvm.lifetime.start.p0(i64 4, ptr %10) #12
  store i32 0, ptr %10, align 4
  br label %32

32:                                               ; preds = %53, %22
  %33 = load i32, ptr %10, align 4
  %34 = icmp ult i32 %33, 8
  br i1 %34, label %36, label %35

35:                                               ; preds = %32
  call void @llvm.lifetime.end.p0(i64 4, ptr %10) #12
  br label %56

36:                                               ; preds = %32
  call void @llvm.lifetime.start.p0(i64 2, ptr %11) #12
  %37 = load i16, ptr %9, align 2
  %38 = zext i16 %37 to i32
  %39 = and i32 %38, 1
  %40 = trunc i32 %39 to i16
  store i16 %40, ptr %11, align 2
  %41 = load i16, ptr %9, align 2
  %42 = zext i16 %41 to i32
  %43 = ashr i32 %42, 1
  %44 = trunc i32 %43 to i16
  store i16 %44, ptr %9, align 2
  %45 = load i16, ptr %11, align 2
  %46 = zext i16 %45 to i32
  %47 = sub i32 0, %46
  %48 = and i32 33800, %47
  %49 = load i16, ptr %9, align 2
  %50 = zext i16 %49 to i32
  %51 = xor i32 %50, %48
  %52 = trunc i32 %51 to i16
  store i16 %52, ptr %9, align 2
  call void @llvm.lifetime.end.p0(i64 2, ptr %11) #12
  br label %53

53:                                               ; preds = %36
  %54 = load i32, ptr %10, align 4
  %55 = add i32 %54, 1
  store i32 %55, ptr %10, align 4
  br label %32, !llvm.loop !12

56:                                               ; preds = %35
  br label %57

57:                                               ; preds = %56
  %58 = load i32, ptr %8, align 4
  %59 = add i32 %58, -1
  store i32 %59, ptr %8, align 4
  %60 = load i32, ptr %7, align 4
  %61 = add i32 %60, 1
  store i32 %61, ptr %7, align 4
  br label %19, !llvm.loop !13

62:                                               ; preds = %19
  %63 = load i16, ptr %9, align 2
  %64 = icmp ne i16 %63, 0
  %65 = xor i1 %64, true
  call void @llvm.lifetime.end.p0(i64 2, ptr %9) #12
  ret i1 %65
}