; Function Attrs: null_pointer_is_valid sspstrong uwtable
define internal fastcc zeroext i1 @check_crc(i8 noundef zeroext %0, ptr noundef %1, i32 noundef range(i32 22, 565) %2, i32 noundef range(i32 3, 1028) %3) unnamed_addr #0 {
  %rev.i = tail call noundef i8 @llvm.bitreverse.i8(i8 %0)
  %5 = zext i8 %rev.i to i16
  %6 = shl nuw i16 %5, 8
  br label %7

7:                                                ; preds = %4, %11
  %.021 = phi i32 [ %2, %4 ], [ %13, %11 ]
  %.01520 = phi i16 [ %6, %4 ], [ %20, %11 ]
  %.01619 = phi i32 [ %3, %4 ], [ %12, %11 ]
  %8 = tail call zeroext i8 @tvb_get_uint8(ptr noundef %1, i32 noundef %.021)
  %9 = zext i8 %8 to i16
  %10 = xor i16 %.01520, %9
  br label %15

11:                                               ; preds = %15
  %12 = add nsw i32 %.01619, -1
  %13 = add nuw nsw i32 %.021, 1
  %14 = icmp sgt i32 %.01619, 1
  br i1 %14, label %7, label %22, !llvm.loop !10

15:                                               ; preds = %7, %15
  %.01418 = phi i32 [ 0, %7 ], [ %21, %15 ]
  %.117 = phi i16 [ %10, %7 ], [ %20, %15 ]
  %16 = and i16 %.117, 1
  %17 = lshr i16 %.117, 1
  %18 = icmp eq i16 %16, 0
  %19 = select i1 %18, i16 0, i16 -31736
  %20 = xor i16 %19, %17
  %21 = add nuw nsw i32 %.01418, 1
  %exitcond.not = icmp eq i32 %21, 8
  br i1 %exitcond.not, label %11, label %15, !llvm.loop !11

22:                                               ; preds = %11
  %.not = icmp eq i16 %19, %17
  ret i1 %.not
}